target datalayout = "e-m:e-p270:32:32-p271:32:32-p272:64:64-i64:64-i128:128-f80:128-n8:16:32:64-S128"
target triple = "x86_64-pc-linux-gnu"

%struct.loader_data_st = type { ptr, i32, ptr, ptr, ptr, i8 }

; Function Attrs: nounwind uwtable
define internal ptr @get_loader_store(ptr noundef %0) #0 {
  %2 = alloca ptr, align 8
  store ptr %0, ptr %2, align 8, !tbaa !19
  %3 = load ptr, ptr %2, align 8, !tbaa !19
  %4 = call ptr @ossl_lib_ctx_get_data(ptr noundef %3, i32 noundef 15)
  ret ptr %4
}

; Function Attrs: nounwind uwtable
define internal ptr @get_loader_from_store(ptr noundef %0, ptr noundef %1, ptr noundef %2) #0 {
  %4 = alloca ptr, align 8
  %5 = alloca ptr, align 8
  %6 = alloca ptr, align 8
  %7 = alloca ptr, align 8
  %8 = alloca ptr, align 8
  %9 = alloca ptr, align 8
  %10 = alloca i32, align 4
  %11 = alloca ptr, align 8
  %12 = alloca i32, align 4
  store ptr %0, ptr %5, align 8, !tbaa !16
  store ptr %1, ptr %6, align 8, !tbaa !43
  store ptr %2, ptr %7, align 8, !tbaa !16
  call void @llvm.lifetime.start.p0(i64 8, ptr %8) #6
  %13 = load ptr, ptr %7, align 8, !tbaa !16
  store ptr %13, ptr %8, align 8, !tbaa !26
  call void @llvm.lifetime.start.p0(i64 8, ptr %9) #6
  store ptr null, ptr %9, align 8, !tbaa !16
  call void @llvm.lifetime.start.p0(i64 4, ptr %10) #6
  %14 = load ptr, ptr %8, align 8, !tbaa !26
  %15 = getelementptr inbounds nuw %struct.loader_data_st, ptr %14, i32 0, i32 1
  %16 = load i32, ptr %15, align 8, !tbaa !32
  store i32 %16, ptr %10, align 4, !tbaa !8
  %17 = icmp eq i32 %16, 0
  br i1 %17, label %18, label %28

18:                                               ; preds = %3
  call void @llvm.lifetime.start.p0(i64 8, ptr %11) #6
  %19 = load ptr, ptr %8, align 8, !tbaa !26
  %20 = getelementptr inbounds nuw %struct.loader_data_st, ptr %19, i32 0, i32 0
  %21 = load ptr, ptr %20, align 8, !tbaa !22
  %22 = call ptr @ossl_namemap_stored(ptr noundef %21)
  store ptr %22, ptr %11, align 8, !tbaa !29
  %23 = load ptr, ptr %11, align 8, !tbaa !29
  %24 = load ptr, ptr %8, align 8, !tbaa !26
  %25 = getelementptr inbounds nuw %struct.loader_data_st, ptr %24, i32 0, i32 2
  %26 = load ptr, ptr %25, align 8, !tbaa !33
  %27 = call i32 @ossl_namemap_name2num(ptr noundef %23, ptr noundef %26)
  store i32 %27, ptr %10, align 4, !tbaa !8
  call void @llvm.lifetime.end.p0(i64 8, ptr %11) #6
  br label %28

28:                                               ; preds = %18, %3
  %29 = load ptr, ptr %5, align 8, !tbaa !16
  %30 = icmp eq ptr %29, null
  br i1 %30, label %31, label %38

31:                                               ; preds = %28
  %32 = load ptr, ptr %8, align 8, !tbaa !26
  %33 = getelementptr inbounds nuw %struct.loader_data_st, ptr %32, i32 0, i32 0
  %34 = load ptr, ptr %33, align 8, !tbaa !22
  %35 = call ptr @get_loader_store(ptr noundef %34)
  store ptr %35, ptr %5, align 8, !tbaa !16
  %36 = icmp eq ptr %35, null
  br i1 %36, label %37, label %38

37:                                               ; preds = %31
  store ptr null, ptr %4, align 8
  store i32 1, ptr %12, align 4
  br label %50

38:                                               ; preds = %31, %28
  %39 = load ptr, ptr %5, align 8, !tbaa !16
  %40 = load i32, ptr %10, align 4, !tbaa !8
  %41 = load ptr, ptr %8, align 8, !tbaa !26
  %42 = getelementptr inbounds nuw %struct.loader_data_st, ptr %41, i32 0, i32 3
  %43 = load ptr, ptr %42, align 8, !tbaa !34
  %44 = load ptr, ptr %6, align 8, !tbaa !43
  %45 = call i32 @ossl_method_store_fetch(ptr noundef %39, i32 noundef %40, ptr noundef %43, ptr noundef %44, ptr noundef %9)
  %46 = icmp ne i32 %45, 0
  br i1 %46, label %48, label %47

47:                                               ; preds = %38
  store ptr null, ptr %4, align 8
  store i32 1, ptr %12, align 4
  br label %50

48:                                               ; preds = %38
  %49 = load ptr, ptr %9, align 8, !tbaa !16
  store ptr %49, ptr %4, align 8
  store i32 1, ptr %12, align 4
  br label %50

50:                                               ; preds = %48, %47, %37
  call void @llvm.lifetime.end.p0(i64 4, ptr %10) #6
  call void @llvm.lifetime.end.p0(i64 8, ptr %9) #6
  call void @llvm.lifetime.end.p0(i64 8, ptr %8) #6
  %51 = load ptr, ptr %4, align 8
  ret ptr %51
}