; Function Attrs: nounwind uwtable
define internal ptr @get_loader_from_store(ptr noundef %0, ptr noundef %1, ptr noundef readonly captures(none) %2) #2 {
  %4 = alloca ptr, align 8
  call void @llvm.lifetime.start.p0(i64 8, ptr nonnull %4) #6
  store ptr null, ptr %4, align 8, !tbaa !18
  %5 = getelementptr inbounds nuw i8, ptr %2, i64 8
  %6 = load i32, ptr %5, align 8, !tbaa !20
  %7 = icmp eq i32 %6, 0
  br i1 %7, label %8, label %14

8:                                                ; preds = %3
  %9 = load ptr, ptr %2, align 8, !tbaa !13
  %10 = tail call ptr @ossl_namemap_stored(ptr noundef %9) #6
  %11 = getelementptr inbounds nuw i8, ptr %2, i64 16
  %12 = load ptr, ptr %11, align 8, !tbaa !21
  %13 = tail call i32 @ossl_namemap_name2num(ptr noundef %10, ptr noundef %12) #6
  br label %14

14:                                               ; preds = %8, %3
  %.011 = phi i32 [ %13, %8 ], [ %6, %3 ]
  %15 = icmp eq ptr %0, null
  br i1 %15, label %16, label %20

16:                                               ; preds = %14
  %17 = load ptr, ptr %2, align 8, !tbaa !13
  %18 = tail call ptr @ossl_lib_ctx_get_data(ptr noundef %17, i32 noundef 15) #6
  %19 = icmp eq ptr %18, null
  br i1 %19, label %25, label %20

20:                                               ; preds = %16, %14
  %.012 = phi ptr [ %18, %16 ], [ %0, %14 ]
  %21 = getelementptr inbounds nuw i8, ptr %2, i64 24
  %22 = load ptr, ptr %21, align 8, !tbaa !22
  %23 = call i32 @ossl_method_store_fetch(ptr noundef nonnull %.012, i32 noundef %.011, ptr noundef %22, ptr noundef %1, ptr noundef nonnull %4) #6
  %.not = icmp eq i32 %23, 0
  %24 = load ptr, ptr %4, align 8
  %spec.select = select i1 %.not, ptr null, ptr %24
  br label %25

25:                                               ; preds = %20, %16
  %.0 = phi ptr [ null, %16 ], [ %spec.select, %20 ]
  call void @llvm.lifetime.end.p0(i64 8, ptr nonnull %4) #6
  ret ptr %.0
}